; Function Attrs: nounwind uwtable
define internal void @pdo_stmt_iter_dtor(ptr noundef %0) #0 {
  %2 = getelementptr inbounds nuw i8, ptr %0, i64 56
  tail call void @zval_ptr_dtor(ptr noundef nonnull %2) #17
  %3 = getelementptr inbounds nuw i8, ptr %0, i64 104
  %4 = load i8, ptr %3, align 8, !tbaa !37
  %5 = icmp eq i8 %4, 0
  br i1 %5, label %8, label %6

6:                                                ; preds = %1
  %7 = getelementptr inbounds nuw i8, ptr %0, i64 96
  tail call void @zval_ptr_dtor(ptr noundef nonnull %7) #17
  store i32 0, ptr %3, align 8, !tbaa !37
  br label %8

8:                                                ; preds = %6, %1
  ret void
}